; Function Attrs: nounwind uwtable
define void @png_set_gamma_fixed(ptr noalias noundef %0, i32 noundef %1, i32 noundef %2) local_unnamed_addr #0 {
  %.not.i = icmp eq ptr %0, null
  br i1 %.not.i, label %png_rtran_ok.exit.thread, label %4

4:                                                ; preds = %3
  %5 = getelementptr inbounds nuw i8, ptr %0, i64 304
  %6 = load i32, ptr %5, align 8, !tbaa !3, !alias.scope !94
  %7 = and i32 %6, 64
  %.not8.i = icmp eq i32 %7, 0
  br i1 %.not8.i, label %9, label %8

8:                                                ; preds = %4
  tail call void @png_app_error(ptr noundef nonnull %0, ptr noundef nonnull @.str.18) #11
  br label %png_rtran_ok.exit.thread

9:                                                ; preds = %4
  %10 = or i32 %6, 16384
  store i32 %10, ptr %5, align 8, !tbaa !3, !alias.scope !94
  switch i32 %1, label %translate_gamma_flags.exit [
    i32 -1, label %11
    i32 -100000, label %11
    i32 -2, label %12
    i32 -50000, label %12
  ]

11:                                               ; preds = %9, %9
  br label %translate_gamma_flags.exit

12:                                               ; preds = %9, %9
  br label %translate_gamma_flags.exit

translate_gamma_flags.exit:                       ; preds = %9, %11, %12
  %.0.i15 = phi i32 [ 220000, %11 ], [ 151724, %12 ], [ %1, %9 ]
  switch i32 %2, label %translate_gamma_flags.exit17 [
    i32 -1, label %translate_gamma_flags.exit17.thread
    i32 -100000, label %translate_gamma_flags.exit17.thread
    i32 -2, label %13
    i32 -50000, label %13
  ]

13:                                               ; preds = %translate_gamma_flags.exit, %translate_gamma_flags.exit
  br label %translate_gamma_flags.exit17.thread

translate_gamma_flags.exit17:                     ; preds = %translate_gamma_flags.exit
  %14 = icmp slt i32 %2, 1
  br i1 %14, label %15, label %translate_gamma_flags.exit17.thread

15:                                               ; preds = %translate_gamma_flags.exit17
  tail call void @png_app_error(ptr noundef nonnull %0, ptr noundef nonnull @.str.5) #11
  br label %translate_gamma_flags.exit17.thread

translate_gamma_flags.exit17.thread:              ; preds = %translate_gamma_flags.exit, %translate_gamma_flags.exit, %13, %15, %translate_gamma_flags.exit17
  %.0.i1624 = phi i32 [ %2, %15 ], [ %2, %translate_gamma_flags.exit17 ], [ 65909, %13 ], [ 45455, %translate_gamma_flags.exit ], [ 45455, %translate_gamma_flags.exit ]
  %16 = icmp slt i32 %.0.i15, 1
  br i1 %16, label %17, label %18

17:                                               ; preds = %translate_gamma_flags.exit17.thread
  tail call void @png_app_error(ptr noundef nonnull %0, ptr noundef nonnull @.str.6) #11
  br label %18

18:                                               ; preds = %17, %translate_gamma_flags.exit17.thread
  %19 = add i32 %.0.i1624, -10000001
  %or.cond.i = icmp ult i32 %19, -9999001
  br i1 %or.cond.i, label %unsupported_gamma.exit, label %20

unsupported_gamma.exit:                           ; preds = %18
  tail call void @png_app_warning(ptr noundef nonnull %0, ptr noundef nonnull @.str.20) #11
  br label %png_rtran_ok.exit.thread

20:                                               ; preds = %18
  %21 = add i32 %.0.i15, -10000001
  %or.cond.i19 = icmp ult i32 %21, -9999001
  br i1 %or.cond.i19, label %unsupported_gamma.exit21, label %22

unsupported_gamma.exit21:                         ; preds = %20
  tail call void @png_app_warning(ptr noundef nonnull %0, ptr noundef nonnull @.str.20) #11
  br label %png_rtran_ok.exit.thread

22:                                               ; preds = %20
  %23 = getelementptr inbounds nuw i8, ptr %0, i64 720
  store i32 %.0.i1624, ptr %23, align 8, !tbaa !97
  %24 = getelementptr inbounds nuw i8, ptr %0, i64 716
  store i32 %.0.i15, ptr %24, align 4, !tbaa !50
  br label %png_rtran_ok.exit.thread

png_rtran_ok.exit.thread:                         ; preds = %3, %8, %unsupported_gamma.exit21, %unsupported_gamma.exit, %22
  ret void
}